; Function Attrs: nounwind uwtable
define float @Abc_NtkGetAreaSpecial2(ptr noundef readonly captures(none) %0) local_unnamed_addr #0 {
  %2 = getelementptr inbounds nuw i8, ptr %0, i64 32
  %3 = load ptr, ptr %2, align 8
  %4 = getelementptr i8, ptr %3, i64 4
  %.val20 = load i32, ptr %4, align 4
  %5 = icmp sgt i32 %.val20, 0
  br i1 %5, label %.lr.ph, label %.critedge

.lr.ph:                                           ; preds = %1, %32
  %6 = phi ptr [ %33, %32 ], [ %3, %1 ]
  %indvars.iv = phi i64 [ %indvars.iv.next, %32 ], [ 0, %1 ]
  %.023 = phi float [ %.1, %32 ], [ 0.000000e+00, %1 ]
  %.01322 = phi float [ %.2, %32 ], [ 0.000000e+00, %1 ]
  %7 = getelementptr i8, ptr %6, i64 8
  %.val18.val = load ptr, ptr %7, align 8
  %8 = getelementptr inbounds nuw ptr, ptr %.val18.val, i64 %indvars.iv
  %9 = load ptr, ptr %8, align 8
  %10 = icmp eq ptr %9, null
  br i1 %10, label %32, label %11

11:                                               ; preds = %.lr.ph
  %12 = getelementptr i8, ptr %9, i64 20
  %.val19 = load i32, ptr %12, align 4
  %13 = and i32 %.val19, 15
  %.not = icmp eq i32 %13, 7
  br i1 %.not, label %sub_0, label %32

sub_0:                                            ; preds = %11
  %14 = getelementptr inbounds nuw i8, ptr %9, i64 56
  %15 = load ptr, ptr %14, align 8
  %16 = tail call ptr @Mio_GateReadName(ptr noundef %15) #19
  %17 = load i8, ptr %16, align 1
  %.not25 = icmp eq i8 %17, 109
  br i1 %.not25, label %.tail, label %.tail.thread

.tail:                                            ; preds = %sub_0
  %18 = getelementptr inbounds nuw i8, ptr %16, i64 1
  %19 = load i8, ptr %18, align 1
  %20 = icmp eq i8 %19, 109
  br i1 %20, label %21, label %.tail.thread

21:                                               ; preds = %.tail
  %22 = load ptr, ptr %14, align 8
  %23 = tail call double @Mio_GateReadArea(ptr noundef %22) #19
  %24 = fpext float %.01322 to double
  %25 = fadd double %23, %24
  %26 = fptrunc double %25 to float
  br label %.tail.thread

.tail.thread:                                     ; preds = %sub_0, %21, %.tail
  %.114 = phi float [ %.01322, %.tail ], [ %26, %21 ], [ %.01322, %sub_0 ]
  %27 = load ptr, ptr %14, align 8
  %28 = tail call double @Mio_GateReadArea(ptr noundef %27) #19
  %29 = fpext float %.023 to double
  %30 = fadd double %28, %29
  %31 = fptrunc double %30 to float
  %.pre = load ptr, ptr %2, align 8
  br label %32

32:                                               ; preds = %.tail.thread, %11, %.lr.ph
  %33 = phi ptr [ %6, %.lr.ph ], [ %.pre, %.tail.thread ], [ %6, %11 ]
  %.2 = phi float [ %.01322, %.lr.ph ], [ %.114, %.tail.thread ], [ %.01322, %11 ]
  %.1 = phi float [ %.023, %.lr.ph ], [ %31, %.tail.thread ], [ %.023, %11 ]
  %indvars.iv.next = add nuw nsw i64 %indvars.iv, 1
  %34 = getelementptr i8, ptr %33, i64 4
  %.val = load i32, ptr %34, align 4
  %35 = sext i32 %.val to i64
  %36 = icmp slt i64 %indvars.iv.next, %35
  br i1 %36, label %.lr.ph, label %.critedge.loopexit, !llvm.loop !10

.critedge.loopexit:                               ; preds = %32
  %37 = fdiv float %.2, %.1
  br label %.critedge

.critedge:                                        ; preds = %.critedge.loopexit, %1
  %38 = phi float [ 0x7FF8000000000000, %1 ], [ %37, %.critedge.loopexit ]
  ret float %38
}